; Function Attrs: mustprogress uwtable
define dso_local noundef zeroext i1 @_ZNK17cmQtAutoGenerator5InfoT7GetBoolERKNSt7__cxx1112basic_stringIcSt11char_traitsIcESaIcEEERbb(ptr noundef nonnull align 8 dereferenceable(48) %0, ptr noundef nonnull align 8 dereferenceable(32) %1, ptr nocapture noundef nonnull writeonly align 1 dereferenceable(1) %2, i1 noundef zeroext %3) local_unnamed_addr #3 align 2 personality ptr @__gxx_personality_v0 {
  %5 = alloca [2 x %"struct.std::pair.15"], align 8
  %6 = alloca %"class.std::__cxx11::basic_string", align 8
  %7 = tail call noundef nonnull align 8 dereferenceable(40) ptr @_ZNK4Json5ValueixERKNSt7__cxx1112basic_stringIcSt11char_traitsIcESaIcEEE(ptr noundef nonnull align 8 dereferenceable(40) %0, ptr noundef nonnull align 8 dereferenceable(32) %1)
  %8 = tail call noundef zeroext i1 @_ZNK4Json5Value6isBoolEv(ptr noundef nonnull align 8 dereferenceable(40) %7)
  br i1 %8, label %9, label %12

9:                                                ; preds = %4
  %10 = tail call noundef zeroext i1 @_ZNK4Json5Value6asBoolEv(ptr noundef nonnull align 8 dereferenceable(40) %7)
  %11 = zext i1 %10 to i8
  store i8 %11, ptr %2, align 1
  br label %31

12:                                               ; preds = %4
  %13 = tail call noundef zeroext i1 @_ZNK4Json5Value6isNullEv(ptr noundef nonnull align 8 dereferenceable(40) %7)
  %.not = xor i1 %13, true
  %brmerge = or i1 %.not, %3
  br i1 %brmerge, label %14, label %31

14:                                               ; preds = %12
  call void @llvm.lifetime.start.p0(i64 48, ptr nonnull %5)
  %15 = tail call { i64, ptr } @_ZNKSt7__cxx1112basic_stringIcSt11char_traitsIcESaIcEEcvSt17basic_string_viewIcS2_EEv(ptr noundef nonnull align 8 dereferenceable(32) %1) #21, !noalias !217
  %16 = extractvalue { i64, ptr } %15, 0
  %17 = extractvalue { i64, ptr } %15, 1
  store i64 %16, ptr %5, align 8, !alias.scope !220, !noalias !217
  %.sroa.2.0..sroa_idx.i.i = getelementptr inbounds i8, ptr %5, i64 8
  store ptr %17, ptr %.sroa.2.0..sroa_idx.i.i, align 8, !alias.scope !220, !noalias !217
  %18 = getelementptr inbounds i8, ptr %5, i64 16
  store ptr null, ptr %18, align 8, !alias.scope !220, !noalias !217
  %19 = getelementptr inbounds i8, ptr %5, i64 24
  store i64 18, ptr %19, align 8, !alias.scope !223, !noalias !217
  %.sroa.2.0..sroa_idx.i6.i = getelementptr inbounds i8, ptr %5, i64 32
  store ptr @.str.16, ptr %.sroa.2.0..sroa_idx.i6.i, align 8, !alias.scope !223, !noalias !217
  %20 = getelementptr inbounds i8, ptr %5, i64 40
  store ptr null, ptr %20, align 8, !alias.scope !223, !noalias !217
  call void @_Z10cmCatViewsSt16initializer_listISt4pairISt17basic_string_viewIcSt11char_traitsIcEEPNSt7__cxx1112basic_stringIcS3_SaIcEEEEE(ptr dead_on_unwind nonnull writable sret(%"class.std::__cxx11::basic_string") align 8 %6, ptr nonnull %5, i64 2)
  call void @llvm.lifetime.end.p0(i64 48, ptr nonnull %5)
  %21 = call { i64, ptr } @_ZNKSt7__cxx1112basic_stringIcSt11char_traitsIcESaIcEEcvSt17basic_string_viewIcS2_EEv(ptr noundef nonnull align 8 dereferenceable(32) %6) #21
  %22 = extractvalue { i64, ptr } %21, 0
  %23 = extractvalue { i64, ptr } %21, 1
  %24 = getelementptr inbounds i8, ptr %0, i64 40
  %25 = load ptr, ptr %24, align 8
  %26 = getelementptr inbounds i8, ptr %25, i64 8
  %27 = load i32, ptr %26, align 8
  %28 = invoke noundef zeroext i1 @_ZNK17cmQtAutoGenerator5InfoT8LogErrorEN11cmQtAutoGen4GenTESt17basic_string_viewIcSt11char_traitsIcEE(ptr noundef nonnull align 8 dereferenceable(48) %0, i32 noundef %27, i64 %22, ptr %23)
          to label %_ZNK17cmQtAutoGenerator5InfoT8LogErrorESt17basic_string_viewIcSt11char_traitsIcEE.exit unwind label %29

_ZNK17cmQtAutoGenerator5InfoT8LogErrorESt17basic_string_viewIcSt11char_traitsIcEE.exit: ; preds = %14
  call void @_ZNSt7__cxx1112basic_stringIcSt11char_traitsIcESaIcEED1Ev(ptr noundef nonnull align 8 dereferenceable(32) %6) #21
  br label %31

29:                                               ; preds = %14
  %30 = landingpad { ptr, i32 }
          cleanup
  call void @_ZNSt7__cxx1112basic_stringIcSt11char_traitsIcESaIcEED1Ev(ptr noundef nonnull align 8 dereferenceable(32) %6) #21
  resume { ptr, i32 } %30

31:                                               ; preds = %9, %12, %_ZNK17cmQtAutoGenerator5InfoT8LogErrorESt17basic_string_viewIcSt11char_traitsIcEE.exit
  %.0 = phi i1 [ false, %_ZNK17cmQtAutoGenerator5InfoT8LogErrorESt17basic_string_viewIcSt11char_traitsIcEE.exit ], [ true, %12 ], [ true, %9 ]
  ret i1 %.0
}